; Function Attrs: mustprogress nounwind uwtable
define hidden noundef ptr @_ZN10MethodData37exception_handler_bci_to_data_or_nullEi(ptr noundef nonnull align 8 dereferenceable(312) %0, i32 noundef %1) local_unnamed_addr #2 align 2 {
  %3 = getelementptr inbounds i8, ptr %0, i64 16
  %4 = load i32, ptr %3, align 8
  %5 = sext i32 %4 to i64
  %6 = getelementptr inbounds i8, ptr %0, i64 %5
  %7 = getelementptr inbounds i8, ptr %0, i64 300
  %8 = load i32, ptr %7, align 4
  %9 = getelementptr inbounds i8, ptr %0, i64 304
  %10 = sext i32 %8 to i64
  %11 = getelementptr inbounds i8, ptr %9, i64 %10
  %12 = ptrtoint ptr %6 to i64
  %13 = ptrtoint ptr %11 to i64
  %14 = sub i64 %12, %13
  %15 = trunc i64 %14 to i32
  %16 = icmp sgt i32 %15, 7
  br i1 %16, label %.lr.ph.preheader.i, label %_ZN10MethodData36exception_handler_bci_to_data_helperEi.exit.thread

.lr.ph.preheader.i:                               ; preds = %2
  %17 = lshr i64 %14, 3
  %wide.trip.count.i = and i64 %17, 268435455
  br label %.lr.ph.i

18:                                               ; preds = %.lr.ph.i
  %indvars.iv.next.i = add nuw nsw i64 %indvars.iv.i, 1
  %exitcond.not.i = icmp eq i64 %indvars.iv.next.i, %wide.trip.count.i
  br i1 %exitcond.not.i, label %_ZN10MethodData36exception_handler_bci_to_data_helperEi.exit.thread, label %.lr.ph.i, !llvm.loop !31

.lr.ph.i:                                         ; preds = %18, %.lr.ph.preheader.i
  %indvars.iv.i = phi i64 [ 0, %.lr.ph.preheader.i ], [ %indvars.iv.next.i, %18 ]
  %19 = shl nsw i64 %indvars.iv.i, 3
  %gep.i = getelementptr i8, ptr %11, i64 %19
  %20 = getelementptr inbounds i8, ptr %gep.i, i64 2
  %21 = load i16, ptr %20, align 2
  %22 = zext i16 %21 to i32
  %23 = icmp eq i32 %22, %1
  br i1 %23, label %_ZN10MethodData36exception_handler_bci_to_data_helperEi.exit, label %18

_ZN10MethodData36exception_handler_bci_to_data_helperEi.exit: ; preds = %.lr.ph.i
  %.not = icmp eq ptr %gep.i, null
  br i1 %.not, label %_ZN10MethodData36exception_handler_bci_to_data_helperEi.exit.thread, label %24

24:                                               ; preds = %_ZN10MethodData36exception_handler_bci_to_data_helperEi.exit
  %25 = tail call noundef ptr @_Z23resource_allocate_bytesmN17AllocFailStrategy13AllocFailEnumE(i64 noundef 16, i32 noundef 0) #20
  %26 = getelementptr inbounds i8, ptr %25, i64 8
  store ptr %gep.i, ptr %26, align 8
  store ptr getelementptr inbounds inrange(-16, 152) (i8, ptr @_ZTV7BitData, i64 16), ptr %25, align 8
  br label %_ZN10MethodData36exception_handler_bci_to_data_helperEi.exit.thread

_ZN10MethodData36exception_handler_bci_to_data_helperEi.exit.thread: ; preds = %18, %2, %_ZN10MethodData36exception_handler_bci_to_data_helperEi.exit, %24
  %27 = phi ptr [ %25, %24 ], [ null, %_ZN10MethodData36exception_handler_bci_to_data_helperEi.exit ], [ null, %2 ], [ null, %18 ]
  ret ptr %27
}